; ModuleID = '54/347.c'
source_filename = "54/347.c"
target datalayout = "e-m:e-p270:32:32-p271:32:32-p272:64:64-i64:64-f80:128-n8:16:32:64-S128"
target triple = "x86_64-pc-linux-gnu"

@.str = private unnamed_addr constant [5 x i8] c"%d%d\00", align 1
@.str.1 = private unnamed_addr constant [2 x i8] c"7\00", align 1
@.str.2 = private unnamed_addr constant [4 x i8] c"%d\0A\00", align 1

; Function Attrs: noinline nounwind uwtable
define dso_local void @main() #0 {
  %1 = alloca i32, align 4
  %2 = alloca i32, align 4
  %3 = alloca i32, align 4
  %4 = call i32 (i8*, ...) @__isoc99_scanf(i8* getelementptr inbounds ([5 x i8], [5 x i8]* @.str, i64 0, i64 0), i32* %2, i32* %3)
  %5 = load i32, i32* %2, align 4
  %6 = icmp eq i32 %5, 2
  br i1 %6, label %7, label %12

7:                                                ; preds = %0
  %8 = load i32, i32* %3, align 4
  %9 = icmp eq i32 %8, 1
  br i1 %9, label %10, label %12

10:                                               ; preds = %7
  %11 = call i32 (i8*, ...) @printf(i8* getelementptr inbounds ([2 x i8], [2 x i8]* @.str.1, i64 0, i64 0))
  br label %29

12:                                               ; preds = %7, %0
  %13 = load i32, i32* %2, align 4
  %14 = sitofp i32 %13 to double
  %15 = load i32, i32* %2, align 4
  %16 = sitofp i32 %15 to double
  %17 = call double @pow(double %14, double %16) #3
  %18 = load i32, i32* %3, align 4
  %19 = load i32, i32* %2, align 4
  %20 = mul nsw i32 %18, %19
  %21 = sitofp i32 %20 to double
  %22 = fsub double %17, %21
  %23 = load i32, i32* %3, align 4
  %24 = sitofp i32 %23 to double
  %25 = fadd double %22, %24
  %26 = fptosi double %25 to i32
  store i32 %26, i32* %1, align 4
  %27 = load i32, i32* %1, align 4
  %28 = call i32 (i8*, ...) @printf(i8* getelementptr inbounds ([4 x i8], [4 x i8]* @.str.2, i64 0, i64 0), i32 %27)
  br label %29

29:                                               ; preds = %12, %10
  ret void
}

declare dso_local i32 @__isoc99_scanf(i8*, ...) #1

declare dso_local i32 @printf(i8*, ...) #1

; Function Attrs: nounwind
declare dso_local double @pow(double, double) #2


!llvm.module.flags = !{!0}
!llvm.ident = !{!1}

!0 = !{i32 1, !"wchar_size", i32 4}
!1 = !{!"clang version 10.0.0-4ubuntu1 "}
